target datalayout = "e-m:e-p270:32:32-p271:32:32-p272:64:64-i64:64-i128:128-f80:128-n8:16:32:64-S128"
target triple = "x86_64-pc-linux-gnu"

%class.rational = type { %class.mpq }
%class.mpq = type { %class.mpz, %class.mpz }
%class.mpz = type { i32, i8, ptr }
%"class.smt::farkas_util" = type { ptr, %class.arith_util, %class.ref_vector, %class.vector.0, %class.rational, i8, i32, %class.svector, %class.svector, %class.svector, %class.svector, %class.svector }
%class.arith_util = type { ptr, ptr }
%class.ref_vector = type { %class.ref_vector_core }
%class.ref_vector_core = type { %class.ref_manager_wrapper, %class.ptr_vector }
%class.ref_manager_wrapper = type { ptr }
%class.ptr_vector = type { %class.vector }
%class.vector = type { ptr }
%class.vector.0 = type { ptr }
%class.svector = type { %class.vector.1 }
%class.vector.1 = type { ptr }

; Function Attrs: mustprogress uwtable
define linkonce_odr hidden noundef ptr @_ZNK10arith_util6mk_mulEP4exprS1_(ptr noundef nonnull align 8 dereferenceable(16) %0, ptr noundef %1, ptr noundef %2) #4 comdat align 2 {
  %4 = alloca ptr, align 8
  %5 = alloca ptr, align 8
  %6 = alloca ptr, align 8
  store ptr %0, ptr %4, align 8, !tbaa !49
  store ptr %1, ptr %5, align 8, !tbaa !45
  store ptr %2, ptr %6, align 8, !tbaa !45
  %7 = load ptr, ptr %4, align 8
  %8 = getelementptr inbounds nuw %class.arith_util, ptr %7, i32 0, i32 0
  %9 = load ptr, ptr %8, align 8, !tbaa !51
  %10 = load ptr, ptr %5, align 8, !tbaa !45
  %11 = load ptr, ptr %6, align 8, !tbaa !45
  %12 = call noundef ptr @_ZN11ast_manager6mk_appEiiP4exprS1_(ptr noundef nonnull align 8 dereferenceable(976) %9, i32 noundef 5, i32 noundef 9, ptr noundef %10, ptr noundef %11)
  ret ptr %12
}

; Function Attrs: mustprogress uwtable
define hidden noundef ptr @_ZN3smt11farkas_util6mk_mulEP4exprS2_(ptr noundef nonnull align 8 dereferenceable(128) %0, ptr noundef %1, ptr noundef %2) #4 align 2 {
  %4 = alloca ptr, align 8
  %5 = alloca ptr, align 8
  %6 = alloca ptr, align 8
  store ptr %0, ptr %4, align 8, !tbaa !3
  store ptr %1, ptr %5, align 8, !tbaa !45
  store ptr %2, ptr %6, align 8, !tbaa !45
  %7 = load ptr, ptr %4, align 8
  call void @_ZN3smt11farkas_util9mk_coerceERP4exprS3_(ptr noundef nonnull align 8 dereferenceable(128) %7, ptr noundef nonnull align 8 dereferenceable(8) %5, ptr noundef nonnull align 8 dereferenceable(8) %6)
  %8 = getelementptr inbounds nuw %"class.smt::farkas_util", ptr %7, i32 0, i32 1
  %9 = load ptr, ptr %5, align 8, !tbaa !45
  %10 = load ptr, ptr %6, align 8, !tbaa !45
  %11 = call noundef ptr @_ZNK10arith_util6mk_mulEP4exprS1_(ptr noundef nonnull align 8 dereferenceable(16) %8, ptr noundef %9, ptr noundef %10)
  ret ptr %11
}